; Function Attrs: nounwind uwtable
define noundef ptr @Bal_ManAlloc(ptr noundef %0, ptr noundef %1, i32 noundef %2, i32 noundef %3, i32 noundef %4) local_unnamed_addr #0 {
  %6 = alloca %struct.timespec, align 8
  %7 = tail call noalias dereferenceable_or_null(56) ptr @calloc(i64 noundef 1, i64 noundef 56) #18
  call void @llvm.lifetime.start.p0(i64 16, ptr nonnull %6)
  %8 = call i32 @clock_gettime(i32 noundef 1, ptr noundef nonnull %6) #19
  %9 = icmp slt i32 %8, 0
  br i1 %9, label %Abc_Clock.exit, label %10

10:                                               ; preds = %5
  %11 = load i64, ptr %6, align 8
  %12 = mul nsw i64 %11, 1000000
  %13 = getelementptr inbounds nuw i8, ptr %6, i64 8
  %14 = load i64, ptr %13, align 8
  %15 = sdiv i64 %14, 1000
  %16 = add nsw i64 %15, %12
  br label %Abc_Clock.exit

Abc_Clock.exit:                                   ; preds = %5, %10
  %.0.i = phi i64 [ %16, %10 ], [ -1, %5 ]
  call void @llvm.lifetime.end.p0(i64 16, ptr nonnull %6)
  %17 = getelementptr inbounds nuw i8, ptr %7, i64 48
  store i64 %.0.i, ptr %17, align 8
  store ptr %0, ptr %7, align 8
  %18 = getelementptr inbounds nuw i8, ptr %7, i64 24
  store ptr %1, ptr %18, align 8
  %19 = getelementptr inbounds nuw i8, ptr %7, i64 8
  store i32 %2, ptr %19, align 8
  %20 = getelementptr inbounds nuw i8, ptr %7, i64 12
  store i32 %3, ptr %20, align 4
  %21 = getelementptr inbounds nuw i8, ptr %7, i64 20
  store i32 %4, ptr %21, align 4
  %22 = getelementptr i8, ptr %0, i64 24
  %.val = load i32, ptr %22, align 8
  %23 = mul nsw i32 %.val, 3
  %24 = sdiv i32 %23, 2
  %25 = call noalias dereferenceable_or_null(16) ptr @malloc(i64 noundef 16) #20
  %26 = add nsw i32 %24, -1
  %or.cond.i = icmp ult i32 %26, 15
  %spec.store.select.i = select i1 %or.cond.i, i32 16, i32 %24
  %27 = getelementptr inbounds nuw i8, ptr %25, i64 4
  store i32 0, ptr %27, align 4
  store i32 %spec.store.select.i, ptr %25, align 8
  %.not.i = icmp eq i32 %spec.store.select.i, 0
  br i1 %.not.i, label %Vec_IntAlloc.exit, label %28

28:                                               ; preds = %Abc_Clock.exit
  %29 = sext i32 %spec.store.select.i to i64
  %30 = shl nsw i64 %29, 2
  %31 = call noalias ptr @malloc(i64 noundef %30) #20
  br label %Vec_IntAlloc.exit

Vec_IntAlloc.exit:                                ; preds = %Abc_Clock.exit, %28
  %32 = phi ptr [ %31, %28 ], [ null, %Abc_Clock.exit ]
  %33 = getelementptr inbounds nuw i8, ptr %25, i64 8
  store ptr %32, ptr %33, align 8
  %34 = getelementptr inbounds nuw i8, ptr %7, i64 32
  store ptr %25, ptr %34, align 8
  %35 = call noalias dereferenceable_or_null(16) ptr @malloc(i64 noundef 16) #20
  %or.cond.i24 = icmp ult i32 %26, 7
  %spec.store.select.i25 = select i1 %or.cond.i24, i32 8, i32 %24
  %36 = getelementptr inbounds nuw i8, ptr %35, i64 4
  store i32 0, ptr %36, align 4
  store i32 %spec.store.select.i25, ptr %35, align 8
  %.not.i26 = icmp eq i32 %spec.store.select.i25, 0
  br i1 %.not.i26, label %Vec_PtrAlloc.exit, label %37

37:                                               ; preds = %Vec_IntAlloc.exit
  %38 = sext i32 %spec.store.select.i25 to i64
  %39 = shl nsw i64 %38, 3
  %40 = call noalias ptr @malloc(i64 noundef %39) #20
  br label %Vec_PtrAlloc.exit

Vec_PtrAlloc.exit:                                ; preds = %Vec_IntAlloc.exit, %37
  %41 = phi ptr [ %40, %37 ], [ null, %Vec_IntAlloc.exit ]
  %42 = getelementptr inbounds nuw i8, ptr %35, i64 8
  store ptr %41, ptr %42, align 8
  %43 = getelementptr inbounds nuw i8, ptr %7, i64 40
  store ptr %35, ptr %43, align 8
  %44 = getelementptr i8, ptr %1, i64 24
  %.val22 = load i32, ptr %44, align 8
  %.not.i.i = icmp slt i32 %spec.store.select.i, %.val22
  br i1 %.not.i.i, label %45, label %Vec_IntGrow.exit.i

45:                                               ; preds = %Vec_PtrAlloc.exit
  %.not9.i.i = icmp eq ptr %32, null
  %46 = sext i32 %.val22 to i64
  %47 = shl nsw i64 %46, 2
  br i1 %.not9.i.i, label %50, label %48

48:                                               ; preds = %45
  %49 = call ptr @realloc(ptr noundef nonnull %32, i64 noundef %47) #21
  br label %52

50:                                               ; preds = %45
  %51 = call noalias ptr @malloc(i64 noundef %47) #20
  br label %52

52:                                               ; preds = %50, %48
  %53 = phi ptr [ %49, %48 ], [ %51, %50 ]
  store ptr %53, ptr %33, align 8
  store i32 %.val22, ptr %25, align 8
  br label %Vec_IntGrow.exit.i

Vec_IntGrow.exit.i:                               ; preds = %52, %Vec_PtrAlloc.exit
  %54 = icmp sgt i32 %.val22, 0
  br i1 %54, label %.lr.ph.i, label %Vec_IntFill.exit

.lr.ph.i:                                         ; preds = %Vec_IntGrow.exit.i
  %wide.trip.count.i = zext nneg i32 %.val22 to i64
  br label %55

55:                                               ; preds = %55, %.lr.ph.i
  %indvars.iv.i = phi i64 [ 0, %.lr.ph.i ], [ %indvars.iv.next.i, %55 ]
  %56 = load ptr, ptr %33, align 8
  %57 = getelementptr inbounds nuw i32, ptr %56, i64 %indvars.iv.i
  store i32 0, ptr %57, align 4
  %indvars.iv.next.i = add nuw nsw i64 %indvars.iv.i, 1
  %exitcond.not.i = icmp eq i64 %indvars.iv.next.i, %wide.trip.count.i
  br i1 %exitcond.not.i, label %Vec_IntFill.exit.loopexit, label %55, !llvm.loop !4

Vec_IntFill.exit.loopexit:                        ; preds = %55
  %.val23.pre = load i32, ptr %44, align 8
  %.pre = load i32, ptr %35, align 8
  br label %Vec_IntFill.exit

Vec_IntFill.exit:                                 ; preds = %Vec_IntFill.exit.loopexit, %Vec_IntGrow.exit.i
  %58 = phi i32 [ %.pre, %Vec_IntFill.exit.loopexit ], [ %spec.store.select.i25, %Vec_IntGrow.exit.i ]
  %.val23 = phi i32 [ %.val23.pre, %Vec_IntFill.exit.loopexit ], [ %.val22, %Vec_IntGrow.exit.i ]
  store i32 %.val22, ptr %27, align 4
  %.not.i.i27 = icmp slt i32 %58, %.val23
  br i1 %.not.i.i27, label %59, label %Vec_PtrGrow.exit.i

59:                                               ; preds = %Vec_IntFill.exit
  %60 = load ptr, ptr %42, align 8
  %.not9.i.i33 = icmp eq ptr %60, null
  %61 = sext i32 %.val23 to i64
  %62 = shl nsw i64 %61, 3
  br i1 %.not9.i.i33, label %65, label %63

63:                                               ; preds = %59
  %64 = call ptr @realloc(ptr noundef nonnull %60, i64 noundef %62) #21
  br label %67

65:                                               ; preds = %59
  %66 = call noalias ptr @malloc(i64 noundef %62) #20
  br label %67

67:                                               ; preds = %65, %63
  %68 = phi ptr [ %64, %63 ], [ %66, %65 ]
  store ptr %68, ptr %42, align 8
  store i32 %.val23, ptr %35, align 8
  br label %Vec_PtrGrow.exit.i

Vec_PtrGrow.exit.i:                               ; preds = %67, %Vec_IntFill.exit
  %69 = icmp sgt i32 %.val23, 0
  br i1 %69, label %.lr.ph.i28, label %Vec_PtrFill.exit

.lr.ph.i28:                                       ; preds = %Vec_PtrGrow.exit.i
  %wide.trip.count.i29 = zext nneg i32 %.val23 to i64
  br label %70

70:                                               ; preds = %70, %.lr.ph.i28
  %indvars.iv.i30 = phi i64 [ 0, %.lr.ph.i28 ], [ %indvars.iv.next.i31, %70 ]
  %71 = load ptr, ptr %42, align 8
  %72 = getelementptr inbounds nuw ptr, ptr %71, i64 %indvars.iv.i30
  store ptr null, ptr %72, align 8
  %indvars.iv.next.i31 = add nuw nsw i64 %indvars.iv.i30, 1
  %exitcond.not.i32 = icmp eq i64 %indvars.iv.next.i31, %wide.trip.count.i29
  br i1 %exitcond.not.i32, label %Vec_PtrFill.exit, label %70, !llvm.loop !6

Vec_PtrFill.exit:                                 ; preds = %70, %Vec_PtrGrow.exit.i
  store i32 %.val23, ptr %36, align 4
  %73 = getelementptr inbounds nuw i8, ptr %1, i64 768
  store ptr %7, ptr %73, align 8
  ret ptr %7
}